; Function Attrs: nounwind uwtable
define dso_local i32 @Curl_headers_init(ptr noundef %0) local_unnamed_addr #0 {
  %2 = alloca ptr, align 8
  call void @llvm.lifetime.start.p0(i64 8, ptr nonnull %2) #5
  %3 = getelementptr inbounds nuw i8, ptr %0, i64 24
  %4 = load ptr, ptr %3, align 8, !tbaa !105
  %.not = icmp eq ptr %4, null
  br i1 %.not, label %20, label %5

5:                                                ; preds = %1
  %6 = getelementptr inbounds nuw i8, ptr %4, i64 928
  %7 = load ptr, ptr %6, align 8, !tbaa !106
  %8 = getelementptr inbounds nuw i8, ptr %7, i64 140
  %9 = load i32, ptr %8, align 4, !tbaa !115
  %10 = and i32 %9, -1073741821
  %.not13 = icmp eq i32 %10, 0
  br i1 %.not13, label %20, label %11

11:                                               ; preds = %5
  %12 = tail call ptr @Curl_cwriter_get_by_name(ptr noundef nonnull %0, ptr noundef nonnull @.str) #5
  %.not14 = icmp eq ptr %12, null
  br i1 %.not14, label %13, label %20

13:                                               ; preds = %11
  %14 = call i32 @Curl_cwriter_create(ptr noundef nonnull %2, ptr noundef nonnull %0, ptr noundef nonnull @hds_cw_collect, i32 noundef 2) #5
  %.not15 = icmp eq i32 %14, 0
  br i1 %.not15, label %15, label %20

15:                                               ; preds = %13
  %16 = load ptr, ptr %2, align 8, !tbaa !117
  %17 = call i32 @Curl_cwriter_add(ptr noundef nonnull %0, ptr noundef %16) #5
  %.not16 = icmp eq i32 %17, 0
  br i1 %.not16, label %20, label %18

18:                                               ; preds = %15
  %19 = load ptr, ptr %2, align 8, !tbaa !117
  call void @Curl_cwriter_free(ptr noundef nonnull %0, ptr noundef %19) #5
  br label %20

20:                                               ; preds = %1, %5, %15, %13, %11, %18
  %.0 = phi i32 [ %17, %18 ], [ 0, %11 ], [ %14, %13 ], [ 0, %15 ], [ 0, %5 ], [ 0, %1 ]
  call void @llvm.lifetime.end.p0(i64 8, ptr nonnull %2) #5
  ret i32 %.0
}